; Function Attrs: nofree norecurse nosync nounwind memory(argmem: readwrite) uwtable
define internal void @pred8x8_dc_10_c(ptr noundef captures(none) %0, i64 noundef %1) #3 {
  %3 = ashr i64 %1, 1
  %invariant.gep = getelementptr i8, ptr %0, i64 -2
  br label %4

4:                                                ; preds = %2, %4
  %indvars.iv = phi i64 [ 0, %2 ], [ %indvars.iv.next, %4 ]
  %.04350 = phi i32 [ 0, %2 ], [ %13, %4 ]
  %.04449 = phi i32 [ 0, %2 ], [ %19, %4 ]
  %.04548 = phi i32 [ 0, %2 ], [ %23, %4 ]
  %5 = mul nsw i64 %3, %indvars.iv
  %gep = getelementptr i16, ptr %invariant.gep, i64 %5
  %6 = load i16, ptr %gep, align 2, !tbaa !9
  %7 = zext i16 %6 to i32
  %8 = sub nsw i64 %indvars.iv, %3
  %9 = getelementptr inbounds i16, ptr %0, i64 %8
  %10 = load i16, ptr %9, align 2, !tbaa !9
  %11 = zext i16 %10 to i32
  %12 = add nuw nsw i32 %.04350, %7
  %13 = add nuw nsw i32 %12, %11
  %14 = or disjoint i64 %indvars.iv, 4
  %15 = sub nsw i64 %14, %3
  %16 = getelementptr inbounds i16, ptr %0, i64 %15
  %17 = load i16, ptr %16, align 2, !tbaa !9
  %18 = zext i16 %17 to i32
  %19 = add nuw nsw i32 %.04449, %18
  %20 = mul nsw i64 %3, %14
  %gep47 = getelementptr i16, ptr %invariant.gep, i64 %20
  %21 = load i16, ptr %gep47, align 2, !tbaa !9
  %22 = zext i16 %21 to i32
  %23 = add nuw nsw i32 %.04548, %22
  %indvars.iv.next = add nuw nsw i64 %indvars.iv, 1
  %exitcond.not = icmp eq i64 %indvars.iv.next, 4
  br i1 %exitcond.not, label %24, label %4, !llvm.loop !86

24:                                               ; preds = %4
  %25 = add nuw nsw i32 %13, 4
  %26 = lshr i32 %25, 3
  %27 = zext nneg i32 %26 to i64
  %28 = mul i64 %27, 281479271743489
  %29 = add nuw nsw i32 %19, 2
  %30 = lshr i32 %29, 2
  %31 = zext nneg i32 %30 to i64
  %32 = mul i64 %31, 281479271743489
  br label %33

33:                                               ; preds = %24, %33
  %indvars.iv57 = phi i64 [ 0, %24 ], [ %indvars.iv.next58, %33 ]
  %34 = mul nsw i64 %3, %indvars.iv57
  %35 = getelementptr inbounds i16, ptr %0, i64 %34
  store i64 %28, ptr %35, align 8, !tbaa !8
  %36 = getelementptr inbounds nuw i8, ptr %35, i64 8
  store i64 %32, ptr %36, align 8, !tbaa !8
  %indvars.iv.next58 = add nuw nsw i64 %indvars.iv57, 1
  %exitcond60.not = icmp eq i64 %indvars.iv.next58, 4
  br i1 %exitcond60.not, label %.preheader.preheader, label %33, !llvm.loop !87

.preheader.preheader:                             ; preds = %33
  %37 = add nuw nsw i32 %23, 2
  %38 = lshr i32 %37, 2
  %39 = zext nneg i32 %38 to i64
  %40 = mul i64 %39, 281479271743489
  %41 = add nuw nsw i32 %23, 4
  %42 = add nuw nsw i32 %41, %19
  %43 = lshr i32 %42, 3
  %44 = zext nneg i32 %43 to i64
  %45 = mul i64 %44, 281479271743489
  br label %.preheader

.preheader:                                       ; preds = %.preheader.preheader, %.preheader
  %indvars.iv61 = phi i64 [ 4, %.preheader.preheader ], [ %indvars.iv.next62, %.preheader ]
  %46 = mul nsw i64 %3, %indvars.iv61
  %47 = getelementptr inbounds i16, ptr %0, i64 %46
  store i64 %40, ptr %47, align 8, !tbaa !8
  %48 = getelementptr inbounds nuw i8, ptr %47, i64 8
  store i64 %45, ptr %48, align 8, !tbaa !8
  %indvars.iv.next62 = add nuw nsw i64 %indvars.iv61, 1
  %exitcond64.not = icmp eq i64 %indvars.iv.next62, 8
  br i1 %exitcond64.not, label %49, label %.preheader, !llvm.loop !88

49:                                               ; preds = %.preheader
  ret void
}